target datalayout = "e-m:e-p270:32:32-p271:32:32-p272:64:64-i64:64-i128:128-f80:128-n8:16:32:64-S128"
target triple = "x86_64-pc-linux-gnu"

%class.mpz = type { i32, i8, ptr }
%class.svector.1 = type { %class.vector.2 }
%class.vector.2 = type { ptr }
%"class.upolynomial::core_manager" = type { ptr, %class.mpzzp_manager, %class.svector.1, %class.svector.1, %class.svector.1, %class.svector.1, %class.svector.1, %class.svector.1, %class.svector.1, [6 x %class.svector.1], %class.svector.1, %class.svector.1, %class.svector.1 }
%class.mpzzp_manager = type { ptr, i8, %class.mpz, %class.mpz, %class.mpz, i8, %class.mpz, %class.mpz, %class.mpz, %class.mpz }
%class.mpbq = type <{ %class.mpz, i32, [4 x i8] }>
%class.mpbq_manager = type { ptr, %class.mpz, %class.mpz, %class.mpbq, %class.mpz, %class.mpz, %class.mpz, %class.mpbq, %class.mpbq, %class.mpz, %class.mpz, %class.mpz }

; Function Attrs: mustprogress uwtable
define linkonce_odr hidden noundef zeroext i1 @_ZN13mpzzp_manager6is_posERK3mpz(ptr noundef nonnull align 8 dereferenceable(136) %0, ptr noundef nonnull align 8 dereferenceable(16) %1) #4 comdat align 2 {
  %3 = alloca ptr, align 8
  %4 = alloca ptr, align 8
  store ptr %0, ptr %3, align 8, !tbaa !31
  store ptr %1, ptr %4, align 8, !tbaa !26
  %5 = load ptr, ptr %4, align 8, !tbaa !26
  %6 = call noundef zeroext i1 @_ZN11mpz_managerILb0EE6is_posERK3mpz(ptr noundef nonnull align 8 dereferenceable(16) %5)
  ret i1 %6
}

; Function Attrs: mustprogress uwtable
define linkonce_odr hidden noundef zeroext i1 @_ZN11mpz_managerILb0EE7is_zeroERK3mpz(ptr noundef nonnull align 8 dereferenceable(16) %0) #4 comdat align 2 {
  %2 = alloca ptr, align 8
  store ptr %0, ptr %2, align 8, !tbaa !26
  %3 = load ptr, ptr %2, align 8, !tbaa !26
  %4 = call noundef i32 @_ZN11mpz_managerILb0EE4signERK3mpz(ptr noundef nonnull align 8 dereferenceable(16) %3)
  %5 = icmp eq i32 %4, 0
  ret i1 %5
}

; Function Attrs: mustprogress nounwind uwtable
define linkonce_odr hidden noundef i32 @_ZN11mpz_managerILb0EE4signERK3mpz(ptr noundef nonnull align 8 dereferenceable(16) %0) #5 comdat align 2 {
  %2 = alloca ptr, align 8
  store ptr %0, ptr %2, align 8, !tbaa !26
  %3 = load ptr, ptr %2, align 8, !tbaa !26
  %4 = getelementptr inbounds nuw %class.mpz, ptr %3, i32 0, i32 0
  %5 = load i32, ptr %4, align 8, !tbaa !28
  ret i32 %5
}

; Function Attrs: mustprogress uwtable
define hidden noundef i32 @_ZN11upolynomial7manager7sign_ofERK3mpz(ptr noundef nonnull align 8 dereferenceable(312) %0, ptr noundef nonnull align 8 dereferenceable(16) %1) #4 align 2 {
  %3 = alloca i32, align 4
  %4 = alloca ptr, align 8
  %5 = alloca ptr, align 8
  store ptr %0, ptr %4, align 8, !tbaa !144
  store ptr %1, ptr %5, align 8, !tbaa !26
  %6 = load ptr, ptr %4, align 8
  %7 = call noundef nonnull align 8 dereferenceable(136) ptr @_ZNK11upolynomial12core_manager1mEv(ptr noundef nonnull align 8 dereferenceable(272) %6)
  %8 = load ptr, ptr %5, align 8, !tbaa !26
  %9 = call noundef zeroext i1 @_ZN13mpzzp_manager7is_zeroERK3mpz(ptr noundef nonnull align 8 dereferenceable(136) %7, ptr noundef nonnull align 8 dereferenceable(16) %8)
  br i1 %9, label %10, label %11

10:                                               ; preds = %2
  store i32 0, ptr %3, align 4
  br label %17

11:                                               ; preds = %2
  %12 = call noundef nonnull align 8 dereferenceable(136) ptr @_ZNK11upolynomial12core_manager1mEv(ptr noundef nonnull align 8 dereferenceable(272) %6)
  %13 = load ptr, ptr %5, align 8, !tbaa !26
  %14 = call noundef zeroext i1 @_ZN13mpzzp_manager6is_posERK3mpz(ptr noundef nonnull align 8 dereferenceable(136) %12, ptr noundef nonnull align 8 dereferenceable(16) %13)
  br i1 %14, label %15, label %16

15:                                               ; preds = %11
  store i32 1, ptr %3, align 4
  br label %17

16:                                               ; preds = %11
  store i32 -1, ptr %3, align 4
  br label %17

17:                                               ; preds = %16, %15, %10
  %18 = load i32, ptr %3, align 4
  ret i32 %18
}

; Function Attrs: mustprogress uwtable
define linkonce_odr hidden noundef zeroext i1 @_ZN13mpzzp_manager7is_zeroERK3mpz(ptr noundef nonnull align 8 dereferenceable(136) %0, ptr noundef nonnull align 8 dereferenceable(16) %1) #4 comdat align 2 {
  %3 = alloca ptr, align 8
  %4 = alloca ptr, align 8
  store ptr %0, ptr %3, align 8, !tbaa !31
  store ptr %1, ptr %4, align 8, !tbaa !26
  %5 = load ptr, ptr %4, align 8, !tbaa !26
  %6 = call noundef zeroext i1 @_ZN11mpz_managerILb0EE7is_zeroERK3mpz(ptr noundef nonnull align 8 dereferenceable(16) %5)
  ret i1 %6
}

; Function Attrs: mustprogress nounwind uwtable
define linkonce_odr hidden noundef nonnull align 8 dereferenceable(136) ptr @_ZNK11upolynomial12core_manager1mEv(ptr noundef nonnull align 8 dereferenceable(272) %0) #5 comdat align 2 {
  %2 = alloca ptr, align 8
  store ptr %0, ptr %2, align 8, !tbaa !8
  %3 = load ptr, ptr %2, align 8
  %4 = getelementptr inbounds nuw %"class.upolynomial::core_manager", ptr %3, i32 0, i32 1
  ret ptr %4
}

; Function Attrs: mustprogress nounwind uwtable
define linkonce_odr hidden noundef zeroext i1 @_ZN11mpz_managerILb0EE6is_posERK3mpz(ptr noundef nonnull align 8 dereferenceable(16) %0) #5 comdat align 2 {
  %2 = alloca ptr, align 8
  store ptr %0, ptr %2, align 8, !tbaa !26
  %3 = load ptr, ptr %2, align 8, !tbaa !26
  %4 = call noundef i32 @_ZN11mpz_managerILb0EE4signERK3mpz(ptr noundef nonnull align 8 dereferenceable(16) %3)
  %5 = icmp sgt i32 %4, 0
  ret i1 %5
}

; Function Attrs: mustprogress nounwind uwtable
define linkonce_odr hidden noundef zeroext i1 @_ZN11mpz_managerILb0EE6is_negERK3mpz(ptr noundef nonnull align 8 dereferenceable(16) %0) #5 comdat align 2 {
  %2 = alloca ptr, align 8
  store ptr %0, ptr %2, align 8, !tbaa !26
  %3 = load ptr, ptr %2, align 8, !tbaa !26
  %4 = call noundef i32 @_ZN11mpz_managerILb0EE4signERK3mpz(ptr noundef nonnull align 8 dereferenceable(16) %3)
  %5 = icmp slt i32 %4, 0
  ret i1 %5
}

; Function Attrs: mustprogress uwtable
define linkonce_odr hidden void @_ZN12mpbq_manager5resetER4mpbq(ptr noundef nonnull align 8 dereferenceable(208) %0, ptr noundef nonnull align 8 dereferenceable(20) %1) #4 comdat align 2 {
  %3 = alloca ptr, align 8
  %4 = alloca ptr, align 8
  store ptr %0, ptr %3, align 8, !tbaa !159
  store ptr %1, ptr %4, align 8, !tbaa !161
  %5 = load ptr, ptr %3, align 8
  %6 = getelementptr inbounds nuw %class.mpbq_manager, ptr %5, i32 0, i32 0
  %7 = load ptr, ptr %6, align 8, !tbaa !170
  %8 = load ptr, ptr %4, align 8, !tbaa !161
  %9 = getelementptr inbounds nuw %class.mpbq, ptr %8, i32 0, i32 0
  call void @_ZN11mpz_managerILb0EE5resetER3mpz(ptr noundef nonnull align 8 dereferenceable(600) %7, ptr noundef nonnull align 8 dereferenceable(16) %9)
  %10 = load ptr, ptr %4, align 8, !tbaa !161
  %11 = getelementptr inbounds nuw %class.mpbq, ptr %10, i32 0, i32 1
  store i32 0, ptr %11, align 8, !tbaa !172
  ret void
}

; Function Attrs: mustprogress uwtable
define hidden noundef i32 @_ZN11upolynomial7manager17eval_sign_at_zeroEjPK3mpz(ptr noundef nonnull align 8 dereferenceable(312) %0, i32 noundef %1, ptr noundef %2) #4 align 2 {
  %4 = alloca i32, align 4
  %5 = alloca ptr, align 8
  %6 = alloca i32, align 4
  %7 = alloca ptr, align 8
  store ptr %0, ptr %5, align 8, !tbaa !144
  store i32 %1, ptr %6, align 4, !tbaa !33
  store ptr %2, ptr %7, align 8, !tbaa !26
  %8 = load ptr, ptr %5, align 8
  %9 = load i32, ptr %6, align 4, !tbaa !33
  %10 = icmp eq i32 %9, 0
  br i1 %10, label %11, label %12

11:                                               ; preds = %3
  store i32 0, ptr %4, align 4
  br label %16

12:                                               ; preds = %3
  %13 = load ptr, ptr %7, align 8, !tbaa !26
  %14 = getelementptr inbounds %class.mpz, ptr %13, i64 0
  %15 = call noundef i32 @_ZN11upolynomial7manager7sign_ofERK3mpz(ptr noundef nonnull align 8 dereferenceable(312) %8, ptr noundef nonnull align 8 dereferenceable(16) %14)
  store i32 %15, ptr %4, align 4
  br label %16

16:                                               ; preds = %12, %11
  %17 = load i32, ptr %4, align 4
  ret i32 %17
}

; Function Attrs: mustprogress uwtable
define linkonce_odr hidden noundef zeroext i1 @_ZN11upolynomial7manager14has_zero_rootsEjPK3mpz(ptr noundef nonnull align 8 dereferenceable(312) %0, i32 noundef %1, ptr noundef %2) #4 comdat align 2 {
  %4 = alloca ptr, align 8
  %5 = alloca i32, align 4
  %6 = alloca ptr, align 8
  store ptr %0, ptr %4, align 8, !tbaa !144
  store i32 %1, ptr %5, align 4, !tbaa !33
  store ptr %2, ptr %6, align 8, !tbaa !26
  %7 = load ptr, ptr %4, align 8
  %8 = call noundef nonnull align 8 dereferenceable(136) ptr @_ZNK11upolynomial12core_manager1mEv(ptr noundef nonnull align 8 dereferenceable(272) %7)
  %9 = load ptr, ptr %6, align 8, !tbaa !26
  %10 = getelementptr inbounds %class.mpz, ptr %9, i64 0
  %11 = call noundef zeroext i1 @_ZN13mpzzp_manager7is_zeroERK3mpz(ptr noundef nonnull align 8 dereferenceable(136) %8, ptr noundef nonnull align 8 dereferenceable(16) %10)
  ret i1 %11
}

; Function Attrs: mustprogress nounwind uwtable
define linkonce_odr hidden noundef zeroext i1 @_ZNK12mpbq_manager6is_posERK4mpbq(ptr noundef nonnull align 8 dereferenceable(208) %0, ptr noundef nonnull align 8 dereferenceable(20) %1) #5 comdat align 2 {
  %3 = alloca ptr, align 8
  %4 = alloca ptr, align 8
  store ptr %0, ptr %3, align 8, !tbaa !159
  store ptr %1, ptr %4, align 8, !tbaa !161
  %5 = load ptr, ptr %4, align 8, !tbaa !161
  %6 = getelementptr inbounds nuw %class.mpbq, ptr %5, i32 0, i32 0
  %7 = call noundef zeroext i1 @_ZN11mpz_managerILb0EE6is_posERK3mpz(ptr noundef nonnull align 8 dereferenceable(16) %6)
  ret i1 %7
}

; Function Attrs: mustprogress nounwind uwtable
define linkonce_odr hidden noundef zeroext i1 @_ZNK12mpbq_manager6is_negERK4mpbq(ptr noundef nonnull align 8 dereferenceable(208) %0, ptr noundef nonnull align 8 dereferenceable(20) %1) #5 comdat align 2 {
  %3 = alloca ptr, align 8
  %4 = alloca ptr, align 8
  store ptr %0, ptr %3, align 8, !tbaa !159
  store ptr %1, ptr %4, align 8, !tbaa !161
  %5 = load ptr, ptr %4, align 8, !tbaa !161
  %6 = getelementptr inbounds nuw %class.mpbq, ptr %5, i32 0, i32 0
  %7 = call noundef zeroext i1 @_ZN11mpz_managerILb0EE6is_negERK3mpz(ptr noundef nonnull align 8 dereferenceable(16) %6)
  ret i1 %7
}

; Function Attrs: mustprogress uwtable
define hidden noundef zeroext i1 @_ZN11upolynomial7manager23normalize_interval_coreEjPK3mpziR12mpbq_managerR4mpbqS7_(ptr noundef nonnull align 8 dereferenceable(312) %0, i32 noundef %1, ptr noundef %2, i32 noundef %3, ptr noundef nonnull align 8 dereferenceable(208) %4, ptr noundef nonnull align 8 dereferenceable(20) %5, ptr noundef nonnull align 8 dereferenceable(20) %6) #4 align 2 {
  %8 = alloca i1, align 1
  %9 = alloca ptr, align 8
  %10 = alloca i32, align 4
  %11 = alloca ptr, align 8
  %12 = alloca i32, align 4
  %13 = alloca ptr, align 8
  %14 = alloca ptr, align 8
  %15 = alloca ptr, align 8
  %16 = alloca i32, align 4
  store ptr %0, ptr %9, align 8, !tbaa !144
  store i32 %1, ptr %10, align 4, !tbaa !33
  store ptr %2, ptr %11, align 8, !tbaa !26
  store i32 %3, ptr %12, align 4, !tbaa !33
  store ptr %4, ptr %13, align 8, !tbaa !159
  store ptr %5, ptr %14, align 8, !tbaa !161
  store ptr %6, ptr %15, align 8, !tbaa !161
  %17 = load ptr, ptr %9, align 8
  %18 = load ptr, ptr %13, align 8, !tbaa !159
  %19 = load ptr, ptr %14, align 8, !tbaa !161
  %20 = call noundef zeroext i1 @_ZNK12mpbq_manager6is_negERK4mpbq(ptr noundef nonnull align 8 dereferenceable(208) %18, ptr noundef nonnull align 8 dereferenceable(20) %19)
  br i1 %20, label %21, label %53

21:                                               ; preds = %7
  %22 = load ptr, ptr %13, align 8, !tbaa !159
  %23 = load ptr, ptr %15, align 8, !tbaa !161
  %24 = call noundef zeroext i1 @_ZNK12mpbq_manager6is_posERK4mpbq(ptr noundef nonnull align 8 dereferenceable(208) %22, ptr noundef nonnull align 8 dereferenceable(20) %23)
  br i1 %24, label %25, label %53

25:                                               ; preds = %21
  %26 = load i32, ptr %12, align 4, !tbaa !33
  %27 = icmp eq i32 %26, -2147483648
  br i1 %27, label %28, label %33

28:                                               ; preds = %25
  %29 = load i32, ptr %10, align 4, !tbaa !33
  %30 = load ptr, ptr %11, align 8, !tbaa !26
  %31 = load ptr, ptr %14, align 8, !tbaa !161
  %32 = call noundef i32 @_ZN11upolynomial7manager12eval_sign_atEjPK3mpzRK4mpbq(ptr noundef nonnull align 8 dereferenceable(312) %17, i32 noundef %29, ptr noundef %30, ptr noundef nonnull align 8 dereferenceable(20) %31)
  store i32 %32, ptr %12, align 4, !tbaa !33
  br label %34

33:                                               ; preds = %25
  br label %34

34:                                               ; preds = %33, %28
  %35 = load i32, ptr %10, align 4, !tbaa !33
  %36 = load ptr, ptr %11, align 8, !tbaa !26
  %37 = call noundef zeroext i1 @_ZN11upolynomial7manager14has_zero_rootsEjPK3mpz(ptr noundef nonnull align 8 dereferenceable(312) %17, i32 noundef %35, ptr noundef %36)
  br i1 %37, label %38, label %39

38:                                               ; preds = %34
  store i1 false, ptr %8, align 1
  br label %54

39:                                               ; preds = %34
  call void @llvm.lifetime.start.p0(i64 4, ptr %16) #3
  %40 = load i32, ptr %10, align 4, !tbaa !33
  %41 = load ptr, ptr %11, align 8, !tbaa !26
  %42 = call noundef i32 @_ZN11upolynomial7manager17eval_sign_at_zeroEjPK3mpz(ptr noundef nonnull align 8 dereferenceable(312) %17, i32 noundef %40, ptr noundef %41)
  store i32 %42, ptr %16, align 4, !tbaa !154
  %43 = load i32, ptr %12, align 4, !tbaa !33
  %44 = load i32, ptr %16, align 4, !tbaa !154
  %45 = icmp eq i32 %43, %44
  br i1 %45, label %46, label %49

46:                                               ; preds = %39
  %47 = load ptr, ptr %13, align 8, !tbaa !159
  %48 = load ptr, ptr %14, align 8, !tbaa !161
  call void @_ZN12mpbq_manager5resetER4mpbq(ptr noundef nonnull align 8 dereferenceable(208) %47, ptr noundef nonnull align 8 dereferenceable(20) %48)
  br label %52

49:                                               ; preds = %39
  %50 = load ptr, ptr %13, align 8, !tbaa !159
  %51 = load ptr, ptr %15, align 8, !tbaa !161
  call void @_ZN12mpbq_manager5resetER4mpbq(ptr noundef nonnull align 8 dereferenceable(208) %50, ptr noundef nonnull align 8 dereferenceable(20) %51)
  br label %52

52:                                               ; preds = %49, %46
  call void @llvm.lifetime.end.p0(i64 4, ptr %16) #3
  br label %53

53:                                               ; preds = %52, %21, %7
  store i1 true, ptr %8, align 1
  br label %54

54:                                               ; preds = %53, %38
  %55 = load i1, ptr %8, align 1
  ret i1 %55
}