; Function Attrs: mustprogress uwtable
define hidden noundef zeroext i1 @_ZN11upolynomial7manager23normalize_interval_coreEjPK3mpziR12mpbq_managerR4mpbqS7_(ptr noundef nonnull align 8 dereferenceable(312) %0, i32 noundef %1, ptr noundef %2, i32 noundef %3, ptr noundef nonnull readonly align 8 captures(none) dereferenceable(208) %4, ptr noundef nonnull align 8 dereferenceable(20) %5, ptr noundef nonnull align 8 dereferenceable(20) %6) local_unnamed_addr #3 align 2 {
  %8 = load i32, ptr %5, align 8, !tbaa !8
  %9 = icmp slt i32 %8, 0
  %10 = load i32, ptr %6, align 8
  %11 = icmp sgt i32 %10, 0
  %or.cond = select i1 %9, i1 %11, i1 false
  br i1 %or.cond, label %12, label %23

12:                                               ; preds = %7
  %13 = icmp eq i32 %3, -2147483648
  br i1 %13, label %14, label %16

14:                                               ; preds = %12
  %15 = tail call noundef i32 @_ZN11upolynomial7manager12eval_sign_atEjPK3mpzRK4mpbq(ptr noundef nonnull align 8 dereferenceable(312) %0, i32 noundef %1, ptr noundef %2, ptr noundef nonnull align 8 dereferenceable(20) %5)
  br label %16

16:                                               ; preds = %12, %14
  %.019 = phi i32 [ %15, %14 ], [ %3, %12 ]
  %17 = load i32, ptr %2, align 8, !tbaa !8
  %18 = icmp eq i32 %17, 0
  br i1 %18, label %23, label %_ZN11upolynomial7manager17eval_sign_at_zeroEjPK3mpz.exit

_ZN11upolynomial7manager17eval_sign_at_zeroEjPK3mpz.exit: ; preds = %16
  %19 = icmp eq i32 %1, 0
  %.inv.i.i = icmp slt i32 %17, 1
  %..i.i = select i1 %.inv.i.i, i32 -1, i32 1
  %.0.i = select i1 %19, i32 0, i32 %..i.i
  %20 = icmp eq i32 %.019, %.0.i
  %21 = load ptr, ptr %4, align 8, !tbaa !158
  %. = select i1 %20, ptr %5, ptr %6
  tail call void @_ZN11mpz_managerILb0EE5resetER3mpz(ptr noundef nonnull align 8 dereferenceable(600) %21, ptr noundef nonnull align 8 dereferenceable(20) %.)
  %22 = getelementptr inbounds nuw i8, ptr %., i64 16
  store i32 0, ptr %22, align 8, !tbaa !154
  br label %23

23:                                               ; preds = %_ZN11upolynomial7manager17eval_sign_at_zeroEjPK3mpz.exit, %7, %16
  %.0 = phi i1 [ false, %16 ], [ true, %7 ], [ true, %_ZN11upolynomial7manager17eval_sign_at_zeroEjPK3mpz.exit ]
  ret i1 %.0
}